target datalayout = "e-m:e-p270:32:32-p271:32:32-p272:64:64-i64:64-i128:128-f80:128-n8:16:32:64-S128"
target triple = "x86_64-pc-linux-gnu"

%class.btVector3 = type { [4 x float] }
%class.btTransform = type { %class.btMatrix3x3, %class.btVector3 }
%class.btMatrix3x3 = type { [3 x %class.btVector3] }
%class.btAlignedObjectArray.4 = type <{ [4 x i8], i32, i32, [4 x i8], ptr, i8, [7 x i8] }>
%class.btAlignedObjectArray.52 = type <{ [4 x i8], i32, i32, [4 x i8], ptr, i8, [7 x i8] }>
%class.btSoftBody = type { %class.btCollisionObject.base, [4 x i8], %class.btAlignedObjectArray, ptr, %"struct.btSoftBody::Config", %"struct.btSoftBody::SolverState", [4 x i8], %"struct.btSoftBody::Pose", ptr, ptr, %class.btAlignedObjectArray.8, %class.btAlignedObjectArray.10, %class.btAlignedObjectArray.12, %class.btAlignedObjectArray.14, %class.btAlignedObjectArray.16, %class.btAlignedObjectArray.18, %class.btAlignedObjectArray.20, %class.btAlignedObjectArray.22, %class.btAlignedObjectArray.22, %class.btAlignedObjectArray.24, %class.btAlignedObjectArray.26, %class.btAlignedObjectArray.28, %class.btAlignedObjectArray.30, %class.btAlignedObjectArray.32, %class.btAlignedObjectArray.34, %class.btAlignedObjectArray.32, %class.btAlignedObjectArray.36, %class.btAlignedObjectArray.38, %class.btAlignedObjectArray.40, float, [2 x %class.btVector3], i8, %struct.btDbvt, %struct.btDbvt, ptr, %struct.btDbvt, %class.btAlignedObjectArray.44, float, float, float, [4 x i8], %class.btAlignedObjectArray.4, float, float, i8, [7 x i8], %class.btAlignedObjectArray.4, %class.btAlignedObjectArray.46, %class.btAlignedObjectArray.48, %class.btAlignedObjectArray.6, i8, i8, [6 x i8], %class.btAlignedObjectArray.50, %class.btVector3, float, i8, [3 x i8], %class.btAlignedObjectArray.52 }
%class.btCollisionObject.base = type <{ ptr, %class.btTransform, %class.btTransform, %class.btVector3, %class.btVector3, %class.btVector3, i32, float, ptr, ptr, ptr, ptr, i32, i32, i32, i32, i32, float, float, float, float, float, float, float, i32, [4 x i8], ptr, i32, i32, i32, float, float, float, i32, [4 x i8], %class.btAlignedObjectArray, i32, %class.btVector3 }>
%class.btAlignedObjectArray = type <{ [4 x i8], i32, i32, [4 x i8], ptr, i8, [7 x i8] }>
%"struct.btSoftBody::Config" = type { i32, float, float, float, float, float, float, float, float, float, float, float, float, float, float, float, float, float, float, float, float, i32, i32, i32, i32, i32, %class.btAlignedObjectArray.0, %class.btAlignedObjectArray.2, %class.btAlignedObjectArray.2, float, float }
%class.btAlignedObjectArray.0 = type <{ [4 x i8], i32, i32, [4 x i8], ptr, i8, [7 x i8] }>
%class.btAlignedObjectArray.2 = type <{ [4 x i8], i32, i32, [4 x i8], ptr, i8, [7 x i8] }>
%"struct.btSoftBody::SolverState" = type { float, float, float, float, float }
%"struct.btSoftBody::Pose" = type { i8, i8, float, %class.btAlignedObjectArray.4, %class.btAlignedObjectArray.6, %class.btVector3, %class.btMatrix3x3, %class.btMatrix3x3, %class.btMatrix3x3 }
%class.btAlignedObjectArray.8 = type <{ [4 x i8], i32, i32, [4 x i8], ptr, i8, [7 x i8] }>
%class.btAlignedObjectArray.10 = type <{ [4 x i8], i32, i32, [4 x i8], ptr, i8, [7 x i8] }>
%class.btAlignedObjectArray.12 = type <{ [4 x i8], i32, i32, [4 x i8], ptr, i8, [7 x i8] }>
%class.btAlignedObjectArray.14 = type <{ [4 x i8], i32, i32, [4 x i8], ptr, i8, [7 x i8] }>
%class.btAlignedObjectArray.16 = type <{ [4 x i8], i32, i32, [4 x i8], ptr, i8, [7 x i8] }>
%class.btAlignedObjectArray.18 = type <{ [4 x i8], i32, i32, [4 x i8], ptr, i8, [7 x i8] }>
%class.btAlignedObjectArray.20 = type <{ [4 x i8], i32, i32, [4 x i8], ptr, i8, [7 x i8] }>
%class.btAlignedObjectArray.22 = type <{ [4 x i8], i32, i32, [4 x i8], ptr, i8, [7 x i8] }>
%class.btAlignedObjectArray.24 = type <{ [4 x i8], i32, i32, [4 x i8], ptr, i8, [7 x i8] }>
%class.btAlignedObjectArray.26 = type <{ [4 x i8], i32, i32, [4 x i8], ptr, i8, [7 x i8] }>
%class.btAlignedObjectArray.28 = type <{ [4 x i8], i32, i32, [4 x i8], ptr, i8, [7 x i8] }>
%class.btAlignedObjectArray.30 = type <{ [4 x i8], i32, i32, [4 x i8], ptr, i8, [7 x i8] }>
%class.btAlignedObjectArray.34 = type <{ [4 x i8], i32, i32, [4 x i8], ptr, i8, [7 x i8] }>
%class.btAlignedObjectArray.32 = type <{ [4 x i8], i32, i32, [4 x i8], ptr, i8, [7 x i8] }>
%class.btAlignedObjectArray.36 = type <{ [4 x i8], i32, i32, [4 x i8], ptr, i8, [7 x i8] }>
%class.btAlignedObjectArray.38 = type <{ [4 x i8], i32, i32, [4 x i8], ptr, i8, [7 x i8] }>
%class.btAlignedObjectArray.40 = type <{ [4 x i8], i32, i32, [4 x i8], ptr, i8, [7 x i8] }>
%struct.btDbvt = type { ptr, ptr, i32, i32, i32, [4 x i8], %class.btAlignedObjectArray.42 }
%class.btAlignedObjectArray.42 = type <{ [4 x i8], i32, i32, [4 x i8], ptr, i8, [7 x i8] }>
%class.btAlignedObjectArray.44 = type <{ [4 x i8], i32, i32, [4 x i8], ptr, i8, [7 x i8] }>
%class.btAlignedObjectArray.46 = type <{ [4 x i8], i32, i32, [4 x i8], ptr, i8, [7 x i8] }>
%class.btAlignedObjectArray.48 = type <{ [4 x i8], i32, i32, [4 x i8], ptr, i8, [7 x i8] }>
%class.btAlignedObjectArray.6 = type <{ [4 x i8], i32, i32, [4 x i8], ptr, i8, [7 x i8] }>
%class.btAlignedObjectArray.50 = type <{ [4 x i8], i32, i32, [4 x i8], ptr, i8, [7 x i8] }>
%"struct.btSoftBody::Node" = type <{ %"struct.btSoftBody::Feature", %class.btVector3, %class.btVector3, %class.btVector3, %class.btVector3, %class.btVector3, %class.btVector3, float, float, ptr, i32, i8, [3 x i8], i32, %class.btVector3, %class.btMatrix3x3, %class.btMatrix3x3, [4 x i8] }>
%"struct.btSoftBody::Feature" = type { %"struct.btSoftBody::Element", ptr }
%"struct.btSoftBody::Element" = type { ptr }

@.str = private unnamed_addr constant [9 x i8] c" M(%.2f)\00", align 1
@.str.3 = private unnamed_addr constant [9 x i8] c" A(%.2f)\00", align 1

; Function Attrs: inlinehint mustprogress nounwind uwtable
define linkonce_odr dso_local noundef nonnull align 8 dereferenceable(252) ptr @_ZN20btAlignedObjectArrayIN10btSoftBody4NodeEEixEi(ptr noundef nonnull align 8 dereferenceable(25) %0, i32 noundef %1) #3 comdat align 2 {
  %3 = alloca ptr, align 8
  %4 = alloca i32, align 4
  store ptr %0, ptr %3, align 8, !tbaa !140
  store i32 %1, ptr %4, align 4, !tbaa !9
  %5 = load ptr, ptr %3, align 8
  %6 = getelementptr inbounds nuw %class.btAlignedObjectArray.10, ptr %5, i32 0, i32 4
  %7 = load ptr, ptr %6, align 8, !tbaa !145
  %8 = load i32, ptr %4, align 4, !tbaa !9
  %9 = sext i32 %8 to i64
  %10 = getelementptr inbounds %"struct.btSoftBody::Node", ptr %7, i64 %9
  ret ptr %10
}

; Function Attrs: inlinehint mustprogress nounwind uwtable
define linkonce_odr dso_local noundef i32 @_ZNK20btAlignedObjectArrayIN10btSoftBody4NodeEE4sizeEv(ptr noundef nonnull align 8 dereferenceable(25) %0) #3 comdat align 2 {
  %2 = alloca ptr, align 8
  store ptr %0, ptr %2, align 8, !tbaa !140
  %3 = load ptr, ptr %2, align 8
  %4 = getelementptr inbounds nuw %class.btAlignedObjectArray.10, ptr %3, i32 0, i32 1
  %5 = load i32, ptr %4, align 4, !tbaa !142
  ret i32 %5
}

; Function Attrs: mustprogress uwtable
define dso_local void @_ZN17btSoftBodyHelpers9DrawInfosEP10btSoftBodyP12btIDebugDrawbbb(ptr noundef %0, ptr noundef %1, i1 noundef zeroext %2, i1 noundef zeroext %3, i1 noundef zeroext %4) #10 align 2 {
  %6 = alloca ptr, align 8
  %7 = alloca ptr, align 8
  %8 = alloca i8, align 1
  %9 = alloca i8, align 1
  %10 = alloca i8, align 1
  %11 = alloca i32, align 4
  %12 = alloca ptr, align 8
  %13 = alloca [2048 x i8], align 16
  %14 = alloca [1024 x i8], align 16
  store ptr %0, ptr %6, align 8, !tbaa !18
  store ptr %1, ptr %7, align 8, !tbaa !20
  %15 = zext i1 %2 to i8
  store i8 %15, ptr %8, align 1, !tbaa !259
  %16 = zext i1 %3 to i8
  store i8 %16, ptr %9, align 1, !tbaa !259
  %17 = zext i1 %4 to i8
  store i8 %17, ptr %10, align 1, !tbaa !259
  call void @llvm.lifetime.start.p0(i64 4, ptr %11) #6
  store i32 0, ptr %11, align 4, !tbaa !9
  br label %18

18:                                               ; preds = %69, %5
  %19 = load i32, ptr %11, align 4, !tbaa !9
  %20 = load ptr, ptr %6, align 8, !tbaa !18
  %21 = getelementptr inbounds nuw %class.btSoftBody, ptr %20, i32 0, i32 11
  %22 = call noundef i32 @_ZNK20btAlignedObjectArrayIN10btSoftBody4NodeEE4sizeEv(ptr noundef nonnull align 8 dereferenceable(25) %21)
  %23 = icmp slt i32 %19, %22
  br i1 %23, label %25, label %24

24:                                               ; preds = %18
  call void @llvm.lifetime.end.p0(i64 4, ptr %11) #6
  br label %72

25:                                               ; preds = %18
  call void @llvm.lifetime.start.p0(i64 8, ptr %12) #6
  %26 = load ptr, ptr %6, align 8, !tbaa !18
  %27 = getelementptr inbounds nuw %class.btSoftBody, ptr %26, i32 0, i32 11
  %28 = load i32, ptr %11, align 4, !tbaa !9
  %29 = call noundef nonnull align 8 dereferenceable(252) ptr @_ZN20btAlignedObjectArrayIN10btSoftBody4NodeEEixEi(ptr noundef nonnull align 8 dereferenceable(25) %27, i32 noundef %28)
  store ptr %29, ptr %12, align 8, !tbaa !41
  call void @llvm.lifetime.start.p0(i64 2048, ptr %13) #6
  call void @llvm.memset.p0.i64(ptr align 16 %13, i8 0, i64 2048, i1 false)
  call void @llvm.lifetime.start.p0(i64 1024, ptr %14) #6
  %30 = load i8, ptr %8, align 1, !tbaa !259, !range !38, !noundef !39
  %31 = trunc i8 %30 to i1
  br i1 %31, label %32, label %43

32:                                               ; preds = %25
  %33 = getelementptr inbounds [1024 x i8], ptr %14, i64 0, i64 0
  %34 = load ptr, ptr %12, align 8, !tbaa !41
  %35 = getelementptr inbounds nuw %"struct.btSoftBody::Node", ptr %34, i32 0, i32 7
  %36 = load float, ptr %35, align 8, !tbaa !90
  %37 = fdiv float 1.000000e+00, %36
  %38 = fpext float %37 to double
  %39 = call i32 (ptr, ptr, ...) @sprintf(ptr noundef %33, ptr noundef @.str, double noundef %38) #6
  %40 = getelementptr inbounds [2048 x i8], ptr %13, i64 0, i64 0
  %41 = getelementptr inbounds [1024 x i8], ptr %14, i64 0, i64 0
  %42 = call ptr @strcat(ptr noundef %40, ptr noundef %41) #6
  br label %43

43:                                               ; preds = %32, %25
  %44 = load i8, ptr %9, align 1, !tbaa !259, !range !38, !noundef !39
  %45 = trunc i8 %44 to i1
  br i1 %45, label %46, label %56

46:                                               ; preds = %43
  %47 = getelementptr inbounds [1024 x i8], ptr %14, i64 0, i64 0
  %48 = load ptr, ptr %12, align 8, !tbaa !41
  %49 = getelementptr inbounds nuw %"struct.btSoftBody::Node", ptr %48, i32 0, i32 8
  %50 = load float, ptr %49, align 4, !tbaa !260
  %51 = fpext float %50 to double
  %52 = call i32 (ptr, ptr, ...) @sprintf(ptr noundef %47, ptr noundef @.str.3, double noundef %51) #6
  %53 = getelementptr inbounds [2048 x i8], ptr %13, i64 0, i64 0
  %54 = getelementptr inbounds [1024 x i8], ptr %14, i64 0, i64 0
  %55 = call ptr @strcat(ptr noundef %53, ptr noundef %54) #6
  br label %56

56:                                               ; preds = %46, %43
  %57 = getelementptr inbounds [2048 x i8], ptr %13, i64 0, i64 0
  %58 = load i8, ptr %57, align 16, !tbaa !11
  %59 = icmp ne i8 %58, 0
  br i1 %59, label %60, label %68

60:                                               ; preds = %56
  %61 = load ptr, ptr %7, align 8, !tbaa !20
  %62 = load ptr, ptr %12, align 8, !tbaa !41
  %63 = getelementptr inbounds nuw %"struct.btSoftBody::Node", ptr %62, i32 0, i32 1
  %64 = getelementptr inbounds [2048 x i8], ptr %13, i64 0, i64 0
  %65 = load ptr, ptr %61, align 8, !tbaa !47
  %66 = getelementptr inbounds ptr, ptr %65, i64 12
  %67 = load ptr, ptr %66, align 8
  call void %67(ptr noundef nonnull align 8 dereferenceable(8) %61, ptr noundef nonnull align 4 dereferenceable(16) %63, ptr noundef %64)
  br label %68

68:                                               ; preds = %60, %56
  call void @llvm.lifetime.end.p0(i64 1024, ptr %14) #6
  call void @llvm.lifetime.end.p0(i64 2048, ptr %13) #6
  call void @llvm.lifetime.end.p0(i64 8, ptr %12) #6
  br label %69

69:                                               ; preds = %68
  %70 = load i32, ptr %11, align 4, !tbaa !9
  %71 = add nsw i32 %70, 1
  store i32 %71, ptr %11, align 4, !tbaa !9
  br label %18, !llvm.loop !261

72:                                               ; preds = %24
  ret void
}