; Function Attrs: mustprogress uwtable
define dso_local void @_ZN17btSoftBodyHelpers9DrawInfosEP10btSoftBodyP12btIDebugDrawbbb(ptr noundef readonly captures(none) %0, ptr noundef %1, i1 noundef zeroext %2, i1 noundef zeroext %3, i1 noundef zeroext %4) local_unnamed_addr #8 align 2 {
  %6 = alloca [2048 x i8], align 16
  %7 = alloca [1024 x i8], align 16
  %8 = getelementptr inbounds nuw i8, ptr %0, i64 932
  %9 = load i32, ptr %8, align 4, !tbaa !70
  %10 = icmp sgt i32 %9, 0
  br i1 %10, label %.lr.ph, label %._crit_edge

.lr.ph:                                           ; preds = %5
  %11 = getelementptr inbounds nuw i8, ptr %0, i64 944
  br i1 %2, label %.lr.ph.split.us, label %.lr.ph.split

.lr.ph.split.us:                                  ; preds = %.lr.ph
  br i1 %3, label %.lr.ph.split.us.split.us, label %.lr.ph.split.us.split

.lr.ph.split.us.split.us:                         ; preds = %.lr.ph.split.us, %31
  %indvars.iv20 = phi i64 [ %indvars.iv.next21, %31 ], [ 0, %.lr.ph.split.us ]
  %12 = load ptr, ptr %11, align 8, !tbaa !73
  %13 = getelementptr inbounds nuw %"struct.btSoftBody::Node", ptr %12, i64 %indvars.iv20
  call void @llvm.lifetime.start.p0(i64 2048, ptr nonnull %6) #27
  call void @llvm.memset.p0.i64(ptr noundef nonnull align 16 dereferenceable(2048) %6, i8 0, i64 2048, i1 false)
  call void @llvm.lifetime.start.p0(i64 1024, ptr nonnull %7) #27
  %14 = getelementptr inbounds nuw i8, ptr %13, i64 112
  %15 = load float, ptr %14, align 8, !tbaa !127
  %16 = fdiv float 1.000000e+00, %15
  %17 = fpext float %16 to double
  %18 = call i32 (ptr, ptr, ...) @sprintf(ptr noundef nonnull dereferenceable(1) %7, ptr noundef nonnull dereferenceable(1) @.str, double noundef %17) #27
  %19 = call ptr @strcat(ptr noundef nonnull dereferenceable(1) %6, ptr noundef nonnull dereferenceable(1) %7) #27
  %20 = getelementptr inbounds nuw i8, ptr %13, i64 116
  %21 = load float, ptr %20, align 4, !tbaa !212
  %22 = fpext float %21 to double
  %23 = call i32 (ptr, ptr, ...) @sprintf(ptr noundef nonnull dereferenceable(1) %7, ptr noundef nonnull dereferenceable(1) @.str.3, double noundef %22) #27
  %24 = call ptr @strcat(ptr noundef nonnull dereferenceable(1) %6, ptr noundef nonnull dereferenceable(1) %7) #27
  %25 = load i8, ptr %6, align 16, !tbaa !35
  %.not.us.us = icmp eq i8 %25, 0
  br i1 %.not.us.us, label %31, label %26

26:                                               ; preds = %.lr.ph.split.us.split.us
  %27 = getelementptr inbounds nuw i8, ptr %13, i64 16
  %28 = load ptr, ptr %1, align 8, !tbaa !66
  %29 = getelementptr inbounds nuw i8, ptr %28, i64 96
  %30 = load ptr, ptr %29, align 8
  call void %30(ptr noundef nonnull align 8 dereferenceable(8) %1, ptr noundef nonnull align 4 dereferenceable(16) %27, ptr noundef nonnull %6)
  br label %31

31:                                               ; preds = %26, %.lr.ph.split.us.split.us
  call void @llvm.lifetime.end.p0(i64 1024, ptr nonnull %7) #27
  call void @llvm.lifetime.end.p0(i64 2048, ptr nonnull %6) #27
  %indvars.iv.next21 = add nuw nsw i64 %indvars.iv20, 1
  %32 = load i32, ptr %8, align 4, !tbaa !70
  %33 = sext i32 %32 to i64
  %34 = icmp slt i64 %indvars.iv.next21, %33
  br i1 %34, label %.lr.ph.split.us.split.us, label %._crit_edge, !llvm.loop !213

.lr.ph.split.us.split:                            ; preds = %.lr.ph.split.us, %49
  %indvars.iv17 = phi i64 [ %indvars.iv.next18, %49 ], [ 0, %.lr.ph.split.us ]
  %35 = load ptr, ptr %11, align 8, !tbaa !73
  %36 = getelementptr inbounds nuw %"struct.btSoftBody::Node", ptr %35, i64 %indvars.iv17
  call void @llvm.lifetime.start.p0(i64 2048, ptr nonnull %6) #27
  call void @llvm.memset.p0.i64(ptr noundef nonnull align 16 dereferenceable(2048) %6, i8 0, i64 2048, i1 false)
  call void @llvm.lifetime.start.p0(i64 1024, ptr nonnull %7) #27
  %37 = getelementptr inbounds nuw i8, ptr %36, i64 112
  %38 = load float, ptr %37, align 8, !tbaa !127
  %39 = fdiv float 1.000000e+00, %38
  %40 = fpext float %39 to double
  %41 = call i32 (ptr, ptr, ...) @sprintf(ptr noundef nonnull dereferenceable(1) %7, ptr noundef nonnull dereferenceable(1) @.str, double noundef %40) #27
  %42 = call ptr @strcat(ptr noundef nonnull dereferenceable(1) %6, ptr noundef nonnull dereferenceable(1) %7) #27
  %43 = load i8, ptr %6, align 16, !tbaa !35
  %.not.us = icmp eq i8 %43, 0
  br i1 %.not.us, label %49, label %44

44:                                               ; preds = %.lr.ph.split.us.split
  %45 = getelementptr inbounds nuw i8, ptr %36, i64 16
  %46 = load ptr, ptr %1, align 8, !tbaa !66
  %47 = getelementptr inbounds nuw i8, ptr %46, i64 96
  %48 = load ptr, ptr %47, align 8
  call void %48(ptr noundef nonnull align 8 dereferenceable(8) %1, ptr noundef nonnull align 4 dereferenceable(16) %45, ptr noundef nonnull %6)
  br label %49

49:                                               ; preds = %44, %.lr.ph.split.us.split
  call void @llvm.lifetime.end.p0(i64 1024, ptr nonnull %7) #27
  call void @llvm.lifetime.end.p0(i64 2048, ptr nonnull %6) #27
  %indvars.iv.next18 = add nuw nsw i64 %indvars.iv17, 1
  %50 = load i32, ptr %8, align 4, !tbaa !70
  %51 = sext i32 %50 to i64
  %52 = icmp slt i64 %indvars.iv.next18, %51
  br i1 %52, label %.lr.ph.split.us.split, label %._crit_edge, !llvm.loop !213

.lr.ph.split:                                     ; preds = %.lr.ph
  br i1 %3, label %.lr.ph.split.split.us, label %._crit_edge

.lr.ph.split.split.us:                            ; preds = %.lr.ph.split, %66
  %indvars.iv = phi i64 [ %indvars.iv.next, %66 ], [ 0, %.lr.ph.split ]
  %53 = load ptr, ptr %11, align 8, !tbaa !73
  %54 = getelementptr inbounds nuw %"struct.btSoftBody::Node", ptr %53, i64 %indvars.iv
  call void @llvm.lifetime.start.p0(i64 2048, ptr nonnull %6) #27
  call void @llvm.memset.p0.i64(ptr noundef nonnull align 16 dereferenceable(2048) %6, i8 0, i64 2048, i1 false)
  call void @llvm.lifetime.start.p0(i64 1024, ptr nonnull %7) #27
  %55 = getelementptr inbounds nuw i8, ptr %54, i64 116
  %56 = load float, ptr %55, align 4, !tbaa !212
  %57 = fpext float %56 to double
  %58 = call i32 (ptr, ptr, ...) @sprintf(ptr noundef nonnull dereferenceable(1) %7, ptr noundef nonnull dereferenceable(1) @.str.3, double noundef %57) #27
  %59 = call ptr @strcat(ptr noundef nonnull dereferenceable(1) %6, ptr noundef nonnull dereferenceable(1) %7) #27
  %60 = load i8, ptr %6, align 16, !tbaa !35
  %.not.us12 = icmp eq i8 %60, 0
  br i1 %.not.us12, label %66, label %61

61:                                               ; preds = %.lr.ph.split.split.us
  %62 = getelementptr inbounds nuw i8, ptr %54, i64 16
  %63 = load ptr, ptr %1, align 8, !tbaa !66
  %64 = getelementptr inbounds nuw i8, ptr %63, i64 96
  %65 = load ptr, ptr %64, align 8
  call void %65(ptr noundef nonnull align 8 dereferenceable(8) %1, ptr noundef nonnull align 4 dereferenceable(16) %62, ptr noundef nonnull %6)
  br label %66

66:                                               ; preds = %61, %.lr.ph.split.split.us
  call void @llvm.lifetime.end.p0(i64 1024, ptr nonnull %7) #27
  call void @llvm.lifetime.end.p0(i64 2048, ptr nonnull %6) #27
  %indvars.iv.next = add nuw nsw i64 %indvars.iv, 1
  %67 = load i32, ptr %8, align 4, !tbaa !70
  %68 = sext i32 %67 to i64
  %69 = icmp slt i64 %indvars.iv.next, %68
  br i1 %69, label %.lr.ph.split.split.us, label %._crit_edge, !llvm.loop !213

._crit_edge:                                      ; preds = %66, %49, %31, %.lr.ph.split, %5
  ret void
}